target datalayout = "e-m:e-p270:32:32-p271:32:32-p272:64:64-i64:64-i128:128-f80:128-n8:16:32:64-S128"
target triple = "x86_64-pc-linux-gnu"

%struct.DdNode = type { i32, i32, ptr, %union.anon, i64 }
%union.anon = type { %struct.DdChildren }
%struct.DdChildren = type { ptr, ptr }
%struct.DdManager = type { %struct.DdNode, ptr, ptr, ptr, ptr, ptr, ptr, ptr, i32, i32, double, double, double, i32, i32, i32, i32, i32, i32, ptr, ptr, %struct.DdSubtable, i32, i32, i32, i32, i32, i32, i32, double, i32, i32, i32, ptr, i64, double, i32, ptr, ptr, ptr, ptr, ptr, ptr, ptr, i32, ptr, ptr, ptr, ptr, ptr, ptr, i32, i32, i32, double, i32, i32, i32, i32, double, double, i32, i32, i32, i32, i32, i32, i32, i32, i32, ptr, ptr, i32, i32, i32, i32, i32, i32, ptr, ptr, ptr, ptr, ptr, ptr, ptr, ptr, i32, i64, i64, i64, i32, i64, i64, double, double, double, double, double, double, i32, ptr, ptr, i64 }
%struct.DdSubtable = type { ptr, i32, i32, i32, i32, i32, i32, i32, i32, i32, i32, i32 }

; Function Attrs: nounwind uwtable
define internal ptr @addBddDoInterval(ptr noundef %0, ptr noundef %1, ptr noundef %2, ptr noundef %3) #0 {
  %5 = alloca ptr, align 8
  %6 = alloca ptr, align 8
  %7 = alloca ptr, align 8
  %8 = alloca ptr, align 8
  %9 = alloca ptr, align 8
  %10 = alloca ptr, align 8
  %11 = alloca ptr, align 8
  %12 = alloca ptr, align 8
  %13 = alloca ptr, align 8
  %14 = alloca ptr, align 8
  %15 = alloca i32, align 4
  %16 = alloca i32, align 4
  store ptr %0, ptr %6, align 8, !tbaa !3
  store ptr %1, ptr %7, align 8, !tbaa !8
  store ptr %2, ptr %8, align 8, !tbaa !8
  store ptr %3, ptr %9, align 8, !tbaa !8
  call void @llvm.lifetime.start.p0(i64 8, ptr %10) #5
  call void @llvm.lifetime.start.p0(i64 8, ptr %11) #5
  call void @llvm.lifetime.start.p0(i64 8, ptr %12) #5
  call void @llvm.lifetime.start.p0(i64 8, ptr %13) #5
  call void @llvm.lifetime.start.p0(i64 8, ptr %14) #5
  call void @llvm.lifetime.start.p0(i64 4, ptr %15) #5
  %17 = load ptr, ptr %7, align 8, !tbaa !8
  %18 = getelementptr inbounds nuw %struct.DdNode, ptr %17, i32 0, i32 0
  %19 = load i32, ptr %18, align 8, !tbaa !31
  %20 = icmp eq i32 %19, 2147483647
  br i1 %20, label %21, label %47

21:                                               ; preds = %4
  %22 = load ptr, ptr %6, align 8, !tbaa !3
  %23 = getelementptr inbounds nuw %struct.DdManager, ptr %22, i32 0, i32 1
  %24 = load ptr, ptr %23, align 8, !tbaa !32
  %25 = ptrtoint ptr %24 to i64
  %26 = load ptr, ptr %7, align 8, !tbaa !8
  %27 = getelementptr inbounds nuw %struct.DdNode, ptr %26, i32 0, i32 3
  %28 = load double, ptr %27, align 8, !tbaa !33
  %29 = load ptr, ptr %8, align 8, !tbaa !8
  %30 = getelementptr inbounds nuw %struct.DdNode, ptr %29, i32 0, i32 3
  %31 = load double, ptr %30, align 8, !tbaa !33
  %32 = fcmp olt double %28, %31
  br i1 %32, label %41, label %33

33:                                               ; preds = %21
  %34 = load ptr, ptr %7, align 8, !tbaa !8
  %35 = getelementptr inbounds nuw %struct.DdNode, ptr %34, i32 0, i32 3
  %36 = load double, ptr %35, align 8, !tbaa !33
  %37 = load ptr, ptr %9, align 8, !tbaa !8
  %38 = getelementptr inbounds nuw %struct.DdNode, ptr %37, i32 0, i32 3
  %39 = load double, ptr %38, align 8, !tbaa !33
  %40 = fcmp ogt double %36, %39
  br label %41

41:                                               ; preds = %33, %21
  %42 = phi i1 [ true, %21 ], [ %40, %33 ]
  %43 = zext i1 %42 to i32
  %44 = sext i32 %43 to i64
  %45 = xor i64 %25, %44
  %46 = inttoptr i64 %45 to ptr
  store ptr %46, ptr %5, align 8
  store i32 1, ptr %16, align 4
  br label %186

47:                                               ; preds = %4
  %48 = load ptr, ptr %6, align 8, !tbaa !3
  %49 = load ptr, ptr %7, align 8, !tbaa !8
  %50 = load ptr, ptr %8, align 8, !tbaa !8
  %51 = load ptr, ptr %9, align 8, !tbaa !8
  %52 = call ptr @cuddCacheLookup(ptr noundef %48, i64 noundef 34, ptr noundef %49, ptr noundef %50, ptr noundef %51)
  store ptr %52, ptr %10, align 8, !tbaa !8
  %53 = load ptr, ptr %10, align 8, !tbaa !8
  %54 = icmp ne ptr %53, null
  br i1 %54, label %55, label %57

55:                                               ; preds = %47
  %56 = load ptr, ptr %10, align 8, !tbaa !8
  store ptr %56, ptr %5, align 8
  store i32 1, ptr %16, align 4
  br label %186

57:                                               ; preds = %47
  %58 = load ptr, ptr %7, align 8, !tbaa !8
  %59 = getelementptr inbounds nuw %struct.DdNode, ptr %58, i32 0, i32 0
  %60 = load i32, ptr %59, align 8, !tbaa !31
  store i32 %60, ptr %15, align 4, !tbaa !34
  %61 = load ptr, ptr %7, align 8, !tbaa !8
  %62 = getelementptr inbounds nuw %struct.DdNode, ptr %61, i32 0, i32 3
  %63 = getelementptr inbounds nuw %struct.DdChildren, ptr %62, i32 0, i32 0
  %64 = load ptr, ptr %63, align 8, !tbaa !33
  store ptr %64, ptr %13, align 8, !tbaa !8
  %65 = load ptr, ptr %7, align 8, !tbaa !8
  %66 = getelementptr inbounds nuw %struct.DdNode, ptr %65, i32 0, i32 3
  %67 = getelementptr inbounds nuw %struct.DdChildren, ptr %66, i32 0, i32 1
  %68 = load ptr, ptr %67, align 8, !tbaa !33
  store ptr %68, ptr %14, align 8, !tbaa !8
  %69 = load ptr, ptr %6, align 8, !tbaa !3
  %70 = load ptr, ptr %13, align 8, !tbaa !8
  %71 = load ptr, ptr %8, align 8, !tbaa !8
  %72 = load ptr, ptr %9, align 8, !tbaa !8
  %73 = call ptr @addBddDoInterval(ptr noundef %69, ptr noundef %70, ptr noundef %71, ptr noundef %72)
  store ptr %73, ptr %11, align 8, !tbaa !8
  %74 = load ptr, ptr %11, align 8, !tbaa !8
  %75 = icmp eq ptr %74, null
  br i1 %75, label %76, label %77

76:                                               ; preds = %57
  store ptr null, ptr %5, align 8
  store i32 1, ptr %16, align 4
  br label %186

77:                                               ; preds = %57
  %78 = load ptr, ptr %11, align 8, !tbaa !8
  %79 = ptrtoint ptr %78 to i64
  %80 = and i64 %79, -2
  %81 = inttoptr i64 %80 to ptr
  %82 = getelementptr inbounds nuw %struct.DdNode, ptr %81, i32 0, i32 1
  %83 = load i32, ptr %82, align 4, !tbaa !12
  %84 = add i32 %83, 1
  store i32 %84, ptr %82, align 4, !tbaa !12
  %85 = load ptr, ptr %6, align 8, !tbaa !3
  %86 = load ptr, ptr %14, align 8, !tbaa !8
  %87 = load ptr, ptr %8, align 8, !tbaa !8
  %88 = load ptr, ptr %9, align 8, !tbaa !8
  %89 = call ptr @addBddDoInterval(ptr noundef %85, ptr noundef %86, ptr noundef %87, ptr noundef %88)
  store ptr %89, ptr %12, align 8, !tbaa !8
  %90 = load ptr, ptr %12, align 8, !tbaa !8
  %91 = icmp eq ptr %90, null
  br i1 %91, label %92, label %95

92:                                               ; preds = %77
  %93 = load ptr, ptr %6, align 8, !tbaa !3
  %94 = load ptr, ptr %11, align 8, !tbaa !8
  call void @Cudd_RecursiveDeref(ptr noundef %93, ptr noundef %94)
  store ptr null, ptr %5, align 8
  store i32 1, ptr %16, align 4
  br label %186

95:                                               ; preds = %77
  %96 = load ptr, ptr %12, align 8, !tbaa !8
  %97 = ptrtoint ptr %96 to i64
  %98 = and i64 %97, -2
  %99 = inttoptr i64 %98 to ptr
  %100 = getelementptr inbounds nuw %struct.DdNode, ptr %99, i32 0, i32 1
  %101 = load i32, ptr %100, align 4, !tbaa !12
  %102 = add i32 %101, 1
  store i32 %102, ptr %100, align 4, !tbaa !12
  %103 = load ptr, ptr %11, align 8, !tbaa !8
  %104 = ptrtoint ptr %103 to i64
  %105 = and i64 %104, 1
  %106 = trunc i64 %105 to i32
  %107 = icmp ne i32 %106, 0
  br i1 %107, label %108, label %143

108:                                              ; preds = %95
  %109 = load ptr, ptr %11, align 8, !tbaa !8
  %110 = load ptr, ptr %12, align 8, !tbaa !8
  %111 = icmp eq ptr %109, %110
  br i1 %111, label %112, label %117

112:                                              ; preds = %108
  %113 = load ptr, ptr %11, align 8, !tbaa !8
  %114 = ptrtoint ptr %113 to i64
  %115 = xor i64 %114, 1
  %116 = inttoptr i64 %115 to ptr
  br label %129

117:                                              ; preds = %108
  %118 = load ptr, ptr %6, align 8, !tbaa !3
  %119 = load i32, ptr %15, align 4, !tbaa !34
  %120 = load ptr, ptr %11, align 8, !tbaa !8
  %121 = ptrtoint ptr %120 to i64
  %122 = xor i64 %121, 1
  %123 = inttoptr i64 %122 to ptr
  %124 = load ptr, ptr %12, align 8, !tbaa !8
  %125 = ptrtoint ptr %124 to i64
  %126 = xor i64 %125, 1
  %127 = inttoptr i64 %126 to ptr
  %128 = call ptr @cuddUniqueInter(ptr noundef %118, i32 noundef %119, ptr noundef %123, ptr noundef %127)
  br label %129

129:                                              ; preds = %117, %112
  %130 = phi ptr [ %116, %112 ], [ %128, %117 ]
  store ptr %130, ptr %10, align 8, !tbaa !8
  %131 = load ptr, ptr %10, align 8, !tbaa !8
  %132 = icmp eq ptr %131, null
  br i1 %132, label %133, label %138

133:                                              ; preds = %129
  %134 = load ptr, ptr %6, align 8, !tbaa !3
  %135 = load ptr, ptr %11, align 8, !tbaa !8
  call void @Cudd_RecursiveDeref(ptr noundef %134, ptr noundef %135)
  %136 = load ptr, ptr %6, align 8, !tbaa !3
  %137 = load ptr, ptr %12, align 8, !tbaa !8
  call void @Cudd_RecursiveDeref(ptr noundef %136, ptr noundef %137)
  store ptr null, ptr %5, align 8
  store i32 1, ptr %16, align 4
  br label %186

138:                                              ; preds = %129
  %139 = load ptr, ptr %10, align 8, !tbaa !8
  %140 = ptrtoint ptr %139 to i64
  %141 = xor i64 %140, 1
  %142 = inttoptr i64 %141 to ptr
  store ptr %142, ptr %10, align 8, !tbaa !8
  br label %165

143:                                              ; preds = %95
  %144 = load ptr, ptr %11, align 8, !tbaa !8
  %145 = load ptr, ptr %12, align 8, !tbaa !8
  %146 = icmp eq ptr %144, %145
  br i1 %146, label %147, label %149

147:                                              ; preds = %143
  %148 = load ptr, ptr %11, align 8, !tbaa !8
  br label %155

149:                                              ; preds = %143
  %150 = load ptr, ptr %6, align 8, !tbaa !3
  %151 = load i32, ptr %15, align 4, !tbaa !34
  %152 = load ptr, ptr %11, align 8, !tbaa !8
  %153 = load ptr, ptr %12, align 8, !tbaa !8
  %154 = call ptr @cuddUniqueInter(ptr noundef %150, i32 noundef %151, ptr noundef %152, ptr noundef %153)
  br label %155

155:                                              ; preds = %149, %147
  %156 = phi ptr [ %148, %147 ], [ %154, %149 ]
  store ptr %156, ptr %10, align 8, !tbaa !8
  %157 = load ptr, ptr %10, align 8, !tbaa !8
  %158 = icmp eq ptr %157, null
  br i1 %158, label %159, label %164

159:                                              ; preds = %155
  %160 = load ptr, ptr %6, align 8, !tbaa !3
  %161 = load ptr, ptr %11, align 8, !tbaa !8
  call void @Cudd_RecursiveDeref(ptr noundef %160, ptr noundef %161)
  %162 = load ptr, ptr %6, align 8, !tbaa !3
  %163 = load ptr, ptr %12, align 8, !tbaa !8
  call void @Cudd_RecursiveDeref(ptr noundef %162, ptr noundef %163)
  store ptr null, ptr %5, align 8
  store i32 1, ptr %16, align 4
  br label %186

164:                                              ; preds = %155
  br label %165

165:                                              ; preds = %164, %138
  %166 = load ptr, ptr %11, align 8, !tbaa !8
  %167 = ptrtoint ptr %166 to i64
  %168 = and i64 %167, -2
  %169 = inttoptr i64 %168 to ptr
  %170 = getelementptr inbounds nuw %struct.DdNode, ptr %169, i32 0, i32 1
  %171 = load i32, ptr %170, align 4, !tbaa !12
  %172 = add i32 %171, -1
  store i32 %172, ptr %170, align 4, !tbaa !12
  %173 = load ptr, ptr %12, align 8, !tbaa !8
  %174 = ptrtoint ptr %173 to i64
  %175 = and i64 %174, -2
  %176 = inttoptr i64 %175 to ptr
  %177 = getelementptr inbounds nuw %struct.DdNode, ptr %176, i32 0, i32 1
  %178 = load i32, ptr %177, align 4, !tbaa !12
  %179 = add i32 %178, -1
  store i32 %179, ptr %177, align 4, !tbaa !12
  %180 = load ptr, ptr %6, align 8, !tbaa !3
  %181 = load ptr, ptr %7, align 8, !tbaa !8
  %182 = load ptr, ptr %8, align 8, !tbaa !8
  %183 = load ptr, ptr %9, align 8, !tbaa !8
  %184 = load ptr, ptr %10, align 8, !tbaa !8
  call void @cuddCacheInsert(ptr noundef %180, i64 noundef 34, ptr noundef %181, ptr noundef %182, ptr noundef %183, ptr noundef %184)
  %185 = load ptr, ptr %10, align 8, !tbaa !8
  store ptr %185, ptr %5, align 8
  store i32 1, ptr %16, align 4
  br label %186

186:                                              ; preds = %165, %159, %133, %92, %76, %55, %41
  call void @llvm.lifetime.end.p0(i64 4, ptr %15) #5
  call void @llvm.lifetime.end.p0(i64 8, ptr %14) #5
  call void @llvm.lifetime.end.p0(i64 8, ptr %13) #5
  call void @llvm.lifetime.end.p0(i64 8, ptr %12) #5
  call void @llvm.lifetime.end.p0(i64 8, ptr %11) #5
  call void @llvm.lifetime.end.p0(i64 8, ptr %10) #5
  %187 = load ptr, ptr %5, align 8
  ret ptr %187
}