; Function Attrs: nounwind uwtable
define internal fastcc ptr @addBddDoInterval(ptr noundef %0, ptr noundef %1, ptr noundef nonnull %2, ptr noundef nonnull %3) unnamed_addr #0 {
  %5 = load i32, ptr %1, align 8, !tbaa !27
  %6 = icmp eq i32 %5, 2147483647
  br i1 %6, label %7, label %25

7:                                                ; preds = %4
  %8 = getelementptr inbounds nuw i8, ptr %0, i64 40
  %9 = load ptr, ptr %8, align 8, !tbaa !28
  %10 = ptrtoint ptr %9 to i64
  %11 = getelementptr inbounds nuw i8, ptr %1, i64 16
  %12 = load double, ptr %11, align 8, !tbaa !29
  %13 = getelementptr inbounds nuw i8, ptr %2, i64 16
  %14 = load double, ptr %13, align 8, !tbaa !29
  %15 = fcmp olt double %12, %14
  br i1 %15, label %21, label %16

16:                                               ; preds = %7
  %17 = getelementptr inbounds nuw i8, ptr %3, i64 16
  %18 = load double, ptr %17, align 8, !tbaa !29
  %19 = fcmp ogt double %12, %18
  %20 = zext i1 %19 to i64
  br label %21

21:                                               ; preds = %16, %7
  %22 = phi i64 [ 1, %7 ], [ %20, %16 ]
  %23 = xor i64 %22, %10
  %24 = inttoptr i64 %23 to ptr
  br label %74

25:                                               ; preds = %4
  %26 = tail call ptr @cuddCacheLookup(ptr noundef %0, i64 noundef 34, ptr noundef nonnull %1, ptr noundef nonnull %2, ptr noundef nonnull %3) #4
  %.not = icmp eq ptr %26, null
  br i1 %.not, label %27, label %74

27:                                               ; preds = %25
  %28 = load i32, ptr %1, align 8, !tbaa !27
  %29 = getelementptr inbounds nuw i8, ptr %1, i64 16
  %30 = load ptr, ptr %29, align 8, !tbaa !29
  %31 = getelementptr inbounds nuw i8, ptr %1, i64 24
  %32 = load ptr, ptr %31, align 8, !tbaa !29
  %33 = tail call fastcc ptr @addBddDoInterval(ptr noundef %0, ptr noundef %30, ptr noundef %2, ptr noundef %3)
  %34 = icmp eq ptr %33, null
  br i1 %34, label %74, label %35

35:                                               ; preds = %27
  %36 = ptrtoint ptr %33 to i64
  %37 = and i64 %36, -2
  %38 = inttoptr i64 %37 to ptr
  %39 = getelementptr inbounds nuw i8, ptr %38, i64 4
  %40 = load i32, ptr %39, align 4, !tbaa !3
  %41 = add i32 %40, 1
  store i32 %41, ptr %39, align 4, !tbaa !3
  %42 = tail call fastcc ptr @addBddDoInterval(ptr noundef %0, ptr noundef %32, ptr noundef %2, ptr noundef %3)
  %43 = icmp eq ptr %42, null
  br i1 %43, label %44, label %45

44:                                               ; preds = %35
  tail call void @Cudd_RecursiveDeref(ptr noundef %0, ptr noundef nonnull %33) #4
  br label %74

45:                                               ; preds = %35
  %46 = ptrtoint ptr %42 to i64
  %47 = and i64 %46, -2
  %48 = inttoptr i64 %47 to ptr
  %49 = getelementptr inbounds nuw i8, ptr %48, i64 4
  %50 = load i32, ptr %49, align 4, !tbaa !3
  %51 = add i32 %50, 1
  store i32 %51, ptr %49, align 4, !tbaa !3
  %52 = and i64 %36, 1
  %.not70 = icmp eq i64 %52, 0
  %53 = icmp eq ptr %33, %42
  br i1 %.not70, label %65, label %54

54:                                               ; preds = %45
  br i1 %53, label %.thread, label %55

55:                                               ; preds = %54
  %56 = xor i64 %46, 1
  %57 = inttoptr i64 %56 to ptr
  %58 = tail call ptr @cuddUniqueInter(ptr noundef %0, i32 noundef %28, ptr noundef nonnull %38, ptr noundef %57) #4
  %59 = icmp eq ptr %58, null
  br i1 %59, label %60, label %.thread

60:                                               ; preds = %55
  tail call void @Cudd_RecursiveDeref(ptr noundef %0, ptr noundef nonnull %33) #4
  tail call void @Cudd_RecursiveDeref(ptr noundef %0, ptr noundef nonnull %42) #4
  br label %74

.thread:                                          ; preds = %54, %55
  %61 = phi ptr [ %58, %55 ], [ %38, %54 ]
  %62 = ptrtoint ptr %61 to i64
  %63 = xor i64 %62, 1
  %64 = inttoptr i64 %63 to ptr
  br label %.thread71

65:                                               ; preds = %45
  br i1 %53, label %.thread71, label %66

66:                                               ; preds = %65
  %67 = tail call ptr @cuddUniqueInter(ptr noundef %0, i32 noundef %28, ptr noundef nonnull %33, ptr noundef nonnull %42) #4
  %68 = icmp eq ptr %67, null
  br i1 %68, label %69, label %.thread71

69:                                               ; preds = %66
  tail call void @Cudd_RecursiveDeref(ptr noundef %0, ptr noundef nonnull %33) #4
  tail call void @Cudd_RecursiveDeref(ptr noundef %0, ptr noundef nonnull %42) #4
  br label %74

.thread71:                                        ; preds = %65, %66, %.thread
  %.063 = phi ptr [ %64, %.thread ], [ %67, %66 ], [ %33, %65 ]
  %70 = load i32, ptr %39, align 4, !tbaa !3
  %71 = add i32 %70, -1
  store i32 %71, ptr %39, align 4, !tbaa !3
  %72 = load i32, ptr %49, align 4, !tbaa !3
  %73 = add i32 %72, -1
  store i32 %73, ptr %49, align 4, !tbaa !3
  tail call void @cuddCacheInsert(ptr noundef %0, i64 noundef 34, ptr noundef nonnull %1, ptr noundef nonnull %2, ptr noundef nonnull %3, ptr noundef %.063) #4
  br label %74

74:                                               ; preds = %27, %25, %.thread71, %69, %60, %44, %21
  %.0 = phi ptr [ %24, %21 ], [ null, %44 ], [ null, %60 ], [ %.063, %.thread71 ], [ null, %69 ], [ %26, %25 ], [ null, %27 ]
  ret ptr %.0
}